; ModuleID = 'source-C-CXX/41/127.cpp'
source_filename = "source-C-CXX/41/127.cpp"
target datalayout = "e-m:e-p270:32:32-p271:32:32-p272:64:64-i64:64-f80:128-n8:16:32:64-S128"
target triple = "x86_64-pc-linux-gnu"

%"class.std::ios_base::Init" = type { i8 }
%"class.std::basic_istream" = type { i32 (...)**, i64, %"class.std::basic_ios" }
%"class.std::basic_ios" = type { %"class.std::ios_base", %"class.std::basic_ostream"*, i8, i8, %"class.std::basic_streambuf"*, %"class.std::ctype"*, %"class.std::num_put"*, %"class.std::num_get"* }
%"class.std::ios_base" = type { i32 (...)**, i64, i64, i32, i32, i32, %"struct.std::ios_base::_Callback_list"*, %"struct.std::ios_base::_Words", [8 x %"struct.std::ios_base::_Words"], i32, %"struct.std::ios_base::_Words"*, %"class.std::locale" }
%"struct.std::ios_base::_Callback_list" = type { %"struct.std::ios_base::_Callback_list"*, void (i32, %"class.std::ios_base"*, i32)*, i32, i32 }
%"struct.std::ios_base::_Words" = type { i8*, i64 }
%"class.std::locale" = type { %"class.std::locale::_Impl"* }
%"class.std::locale::_Impl" = type { i32, %"class.std::locale::facet"**, i64, %"class.std::locale::facet"**, i8** }
%"class.std::locale::facet" = type <{ i32 (...)**, i32, [4 x i8] }>
%"class.std::basic_ostream" = type { i32 (...)**, %"class.std::basic_ios" }
%"class.std::basic_streambuf" = type { i32 (...)**, i8*, i8*, i8*, i8*, i8*, i8*, %"class.std::locale" }
%"class.std::ctype" = type <{ %"class.std::locale::facet.base", [4 x i8], %struct.__locale_struct*, i8, [7 x i8], i32*, i32*, i16*, i8, [256 x i8], [256 x i8], i8, [6 x i8] }>
%"class.std::locale::facet.base" = type <{ i32 (...)**, i32 }>
%struct.__locale_struct = type { [13 x %struct.__locale_data*], i16*, i32*, i32*, [13 x i8*] }
%struct.__locale_data = type opaque
%"class.std::num_put" = type { %"class.std::locale::facet.base", [4 x i8] }
%"class.std::num_get" = type { %"class.std::locale::facet.base", [4 x i8] }

@_ZStL8__ioinit = internal global %"class.std::ios_base::Init" zeroinitializer, align 1
@__dso_handle = external hidden global i8
@_ZSt3cin = external global %"class.std::basic_istream", align 8
@_ZSt4cout = external global %"class.std::basic_ostream", align 8
@.str = private unnamed_addr constant [2 x i8] c" \00", align 1
@llvm.global_ctors = appending global [1 x { i32, void ()*, i8* }] [{ i32, void ()*, i8* } { i32 65535, void ()* @_GLOBAL__sub_I_127.cpp, i8* null }]

declare void @_ZNSt8ios_base4InitC1Ev(%"class.std::ios_base::Init"* nonnull align 1 dereferenceable(1)) unnamed_addr #0

; Function Attrs: nounwind
declare void @_ZNSt8ios_base4InitD1Ev(%"class.std::ios_base::Init"* nonnull align 1 dereferenceable(1)) unnamed_addr #1

; Function Attrs: nofree nounwind
declare i32 @__cxa_atexit(void (i8*)*, i8*, i8*) local_unnamed_addr #2

; Function Attrs: mustprogress norecurse sspstrong uwtable
define dso_local i32 @main() local_unnamed_addr #3 {
  %1 = alloca [100000 x i32], align 16
  %2 = alloca i32, align 4
  %3 = alloca i32, align 4
  %4 = bitcast [100000 x i32]* %1 to i8*
  call void @llvm.lifetime.start.p0i8(i64 400000, i8* nonnull %4) #6
  %5 = bitcast i32* %2 to i8*
  call void @llvm.lifetime.start.p0i8(i64 4, i8* nonnull %5) #6
  %6 = bitcast i32* %3 to i8*
  call void @llvm.lifetime.start.p0i8(i64 4, i8* nonnull %6) #6
  %7 = call nonnull align 8 dereferenceable(16) %"class.std::basic_istream"* @_ZNSirsERi(%"class.std::basic_istream"* nonnull align 8 dereferenceable(16) @_ZSt3cin, i32* nonnull align 4 dereferenceable(4) %2)
  %8 = load i32, i32* %2, align 4, !tbaa !5
  %9 = icmp sgt i32 %8, 0
  br i1 %9, label %21, label %10

10:                                               ; preds = %21, %0
  %11 = call nonnull align 8 dereferenceable(16) %"class.std::basic_istream"* @_ZNSirsERi(%"class.std::basic_istream"* nonnull align 8 dereferenceable(16) @_ZSt3cin, i32* nonnull align 4 dereferenceable(4) %3)
  %12 = load i32, i32* %2, align 4, !tbaa !5
  %13 = load i32, i32* %3, align 4
  %14 = icmp sgt i32 %12, 0
  br i1 %14, label %15, label %65

15:                                               ; preds = %10
  %16 = zext i32 %12 to i64
  %17 = and i64 %16, 1
  %18 = icmp eq i32 %12, 1
  br i1 %18, label %50, label %19

19:                                               ; preds = %15
  %20 = and i64 %16, 4294967294
  br label %29

21:                                               ; preds = %0, %21
  %22 = phi i64 [ %25, %21 ], [ 0, %0 ]
  %23 = getelementptr inbounds [100000 x i32], [100000 x i32]* %1, i64 0, i64 %22
  %24 = call nonnull align 8 dereferenceable(16) %"class.std::basic_istream"* @_ZNSirsERi(%"class.std::basic_istream"* nonnull align 8 dereferenceable(16) @_ZSt3cin, i32* nonnull align 4 dereferenceable(4) %23)
  %25 = add nuw nsw i64 %22, 1
  %26 = load i32, i32* %2, align 4, !tbaa !5
  %27 = sext i32 %26 to i64
  %28 = icmp slt i64 %25, %27
  br i1 %28, label %21, label %10, !llvm.loop !9

29:                                               ; preds = %91, %19
  %30 = phi i64 [ 0, %19 ], [ %94, %91 ]
  %31 = phi i32 [ 0, %19 ], [ %93, %91 ]
  %32 = phi i32 [ 0, %19 ], [ %92, %91 ]
  %33 = phi i64 [ %20, %19 ], [ %95, %91 ]
  %34 = getelementptr inbounds [100000 x i32], [100000 x i32]* %1, i64 0, i64 %30
  %35 = load i32, i32* %34, align 8, !tbaa !5
  %36 = icmp eq i32 %35, %13
  br i1 %36, label %41, label %37

37:                                               ; preds = %29
  %38 = add nsw i32 %31, 1
  %39 = sext i32 %31 to i64
  %40 = getelementptr inbounds [100000 x i32], [100000 x i32]* %1, i64 0, i64 %39
  store i32 %35, i32* %40, align 4, !tbaa !5
  br label %43

41:                                               ; preds = %29
  %42 = add nsw i32 %32, 1
  br label %43

43:                                               ; preds = %37, %41
  %44 = phi i32 [ %32, %37 ], [ %42, %41 ]
  %45 = phi i32 [ %38, %37 ], [ %31, %41 ]
  %46 = or i64 %30, 1
  %47 = getelementptr inbounds [100000 x i32], [100000 x i32]* %1, i64 0, i64 %46
  %48 = load i32, i32* %47, align 4, !tbaa !5
  %49 = icmp eq i32 %48, %13
  br i1 %49, label %89, label %85

50:                                               ; preds = %91, %15
  %51 = phi i32 [ undef, %15 ], [ %92, %91 ]
  %52 = phi i64 [ 0, %15 ], [ %94, %91 ]
  %53 = phi i32 [ 0, %15 ], [ %93, %91 ]
  %54 = phi i32 [ 0, %15 ], [ %92, %91 ]
  %55 = icmp eq i64 %17, 0
  br i1 %55, label %65, label %56

56:                                               ; preds = %50
  %57 = getelementptr inbounds [100000 x i32], [100000 x i32]* %1, i64 0, i64 %52
  %58 = load i32, i32* %57, align 4, !tbaa !5
  %59 = icmp eq i32 %58, %13
  br i1 %59, label %63, label %60

60:                                               ; preds = %56
  %61 = sext i32 %53 to i64
  %62 = getelementptr inbounds [100000 x i32], [100000 x i32]* %1, i64 0, i64 %61
  store i32 %58, i32* %62, align 4, !tbaa !5
  br label %65

63:                                               ; preds = %56
  %64 = add nsw i32 %54, 1
  br label %65

65:                                               ; preds = %50, %60, %63, %10
  %66 = phi i32 [ 0, %10 ], [ %51, %50 ], [ %54, %60 ], [ %64, %63 ]
  %67 = getelementptr inbounds [100000 x i32], [100000 x i32]* %1, i64 0, i64 0
  %68 = load i32, i32* %67, align 16, !tbaa !5
  %69 = call nonnull align 8 dereferenceable(8) %"class.std::basic_ostream"* @_ZNSolsEi(%"class.std::basic_ostream"* nonnull align 8 dereferenceable(8) @_ZSt4cout, i32 %68)
  %70 = load i32, i32* %2, align 4, !tbaa !5
  %71 = sub nsw i32 %70, %66
  %72 = icmp sgt i32 %71, 1
  br i1 %72, label %74, label %73

73:                                               ; preds = %74, %65
  call void @llvm.lifetime.end.p0i8(i64 4, i8* nonnull %6) #6
  call void @llvm.lifetime.end.p0i8(i64 4, i8* nonnull %5) #6
  call void @llvm.lifetime.end.p0i8(i64 400000, i8* nonnull %4) #6
  ret i32 0

74:                                               ; preds = %65, %74
  %75 = phi i64 [ %80, %74 ], [ 1, %65 ]
  %76 = call nonnull align 8 dereferenceable(8) %"class.std::basic_ostream"* @_ZSt16__ostream_insertIcSt11char_traitsIcEERSt13basic_ostreamIT_T0_ES6_PKS3_l(%"class.std::basic_ostream"* nonnull align 8 dereferenceable(8) @_ZSt4cout, i8* nonnull getelementptr inbounds ([2 x i8], [2 x i8]* @.str, i64 0, i64 0), i64 1)
  %77 = getelementptr inbounds [100000 x i32], [100000 x i32]* %1, i64 0, i64 %75
  %78 = load i32, i32* %77, align 4, !tbaa !5
  %79 = call nonnull align 8 dereferenceable(8) %"class.std::basic_ostream"* @_ZNSolsEi(%"class.std::basic_ostream"* nonnull align 8 dereferenceable(8) @_ZSt4cout, i32 %78)
  %80 = add nuw nsw i64 %75, 1
  %81 = load i32, i32* %2, align 4, !tbaa !5
  %82 = sub nsw i32 %81, %66
  %83 = sext i32 %82 to i64
  %84 = icmp slt i64 %80, %83
  br i1 %84, label %74, label %73, !llvm.loop !11

85:                                               ; preds = %43
  %86 = add nsw i32 %45, 1
  %87 = sext i32 %45 to i64
  %88 = getelementptr inbounds [100000 x i32], [100000 x i32]* %1, i64 0, i64 %87
  store i32 %48, i32* %88, align 4, !tbaa !5
  br label %91

89:                                               ; preds = %43
  %90 = add nsw i32 %44, 1
  br label %91

91:                                               ; preds = %89, %85
  %92 = phi i32 [ %44, %85 ], [ %90, %89 ]
  %93 = phi i32 [ %86, %85 ], [ %45, %89 ]
  %94 = add nuw nsw i64 %30, 2
  %95 = add i64 %33, -2
  %96 = icmp eq i64 %95, 0
  br i1 %96, label %50, label %29, !llvm.loop !12
}

; Function Attrs: argmemonly mustprogress nofree nosync nounwind willreturn
declare void @llvm.lifetime.start.p0i8(i64 immarg, i8* nocapture) #4

declare nonnull align 8 dereferenceable(16) %"class.std::basic_istream"* @_ZNSirsERi(%"class.std::basic_istream"* nonnull align 8 dereferenceable(16), i32* nonnull align 4 dereferenceable(4)) local_unnamed_addr #0

; Function Attrs: argmemonly mustprogress nofree nosync nounwind willreturn
declare void @llvm.lifetime.end.p0i8(i64 immarg, i8* nocapture) #4

declare nonnull align 8 dereferenceable(8) %"class.std::basic_ostream"* @_ZNSolsEi(%"class.std::basic_ostream"* nonnull align 8 dereferenceable(8), i32) local_unnamed_addr #0

declare nonnull align 8 dereferenceable(8) %"class.std::basic_ostream"* @_ZSt16__ostream_insertIcSt11char_traitsIcEERSt13basic_ostreamIT_T0_ES6_PKS3_l(%"class.std::basic_ostream"* nonnull align 8 dereferenceable(8), i8*, i64) local_unnamed_addr #0

; Function Attrs: sspstrong uwtable
define internal void @_GLOBAL__sub_I_127.cpp() #5 section ".text.startup" {
  tail call void @_ZNSt8ios_base4InitC1Ev(%"class.std::ios_base::Init"* nonnull align 1 dereferenceable(1) @_ZStL8__ioinit)
  %1 = tail call i32 @__cxa_atexit(void (i8*)* bitcast (void (%"class.std::ios_base::Init"*)* @_ZNSt8ios_base4InitD1Ev to void (i8*)*), i8* getelementptr inbounds (%"class.std::ios_base::Init", %"class.std::ios_base::Init"* @_ZStL8__ioinit, i64 0, i32 0), i8* nonnull @__dso_handle) #6
  ret void
}


!llvm.module.flags = !{!0, !1, !2, !3}
!llvm.ident = !{!4}

!0 = !{i32 1, !"wchar_size", i32 4}
!1 = !{i32 7, !"PIC Level", i32 2}
!2 = !{i32 7, !"PIE Level", i32 2}
!3 = !{i32 7, !"uwtable", i32 1}
!4 = !{!"clang version 13.0.0"}
!5 = !{!6, !6, i64 0}
!6 = !{!"int", !7, i64 0}
!7 = !{!"omnipotent char", !8, i64 0}
!8 = !{!"Simple C++ TBAA"}
!9 = distinct !{!9, !10}
!10 = !{!"llvm.loop.mustprogress"}
!11 = distinct !{!11, !10}
!12 = distinct !{!12, !10}
